target datalayout = "e-m:e-p270:32:32-p271:32:32-p272:64:64-i64:64-i128:128-f80:128-n8:16:32:64-S128"
target triple = "x86_64-unknown-linux-gnu"

%struct.ckh_t = type { i64, i64, i32, i32, ptr, ptr, ptr }
%struct.ckhc_t = type { ptr, ptr }

; Function Attrs: nounwind uwtable
define internal i64 @ckh_bucket_search(ptr noundef %ckh, i64 noundef %bucket, ptr noundef %key) #0 {
entry:
  %retval = alloca i64, align 8
  %ckh.addr = alloca ptr, align 8
  %bucket.addr = alloca i64, align 8
  %key.addr = alloca ptr, align 8
  %cell = alloca ptr, align 8
  %i = alloca i32, align 4
  store ptr %ckh, ptr %ckh.addr, align 8
  store i64 %bucket, ptr %bucket.addr, align 8
  store ptr %key, ptr %key.addr, align 8
  store i32 0, ptr %i, align 4
  br label %for.cond

for.cond:                                         ; preds = %for.inc, %entry
  %0 = load i32, ptr %i, align 4
  %conv = zext i32 %0 to i64
  %cmp = icmp ult i64 %conv, 4
  br i1 %cmp, label %for.body, label %for.end

for.body:                                         ; preds = %for.cond
  %1 = load ptr, ptr %ckh.addr, align 8
  %tab = getelementptr inbounds %struct.ckh_t, ptr %1, i32 0, i32 6
  %2 = load ptr, ptr %tab, align 8
  %3 = load i64, ptr %bucket.addr, align 8
  %shl = shl i64 %3, 2
  %4 = load i32, ptr %i, align 4
  %conv2 = zext i32 %4 to i64
  %add = add i64 %shl, %conv2
  %arrayidx = getelementptr inbounds %struct.ckhc_t, ptr %2, i64 %add
  store ptr %arrayidx, ptr %cell, align 8
  %5 = load ptr, ptr %cell, align 8
  %key3 = getelementptr inbounds %struct.ckhc_t, ptr %5, i32 0, i32 0
  %6 = load ptr, ptr %key3, align 8
  %cmp4 = icmp ne ptr %6, null
  br i1 %cmp4, label %land.lhs.true, label %if.end

land.lhs.true:                                    ; preds = %for.body
  %7 = load ptr, ptr %ckh.addr, align 8
  %keycomp = getelementptr inbounds %struct.ckh_t, ptr %7, i32 0, i32 5
  %8 = load ptr, ptr %keycomp, align 8
  %9 = load ptr, ptr %key.addr, align 8
  %10 = load ptr, ptr %cell, align 8
  %key6 = getelementptr inbounds %struct.ckhc_t, ptr %10, i32 0, i32 0
  %11 = load ptr, ptr %key6, align 8
  %call = call zeroext i1 %8(ptr noundef %9, ptr noundef %11)
  br i1 %call, label %if.then, label %if.end

if.then:                                          ; preds = %land.lhs.true
  %12 = load i64, ptr %bucket.addr, align 8
  %shl8 = shl i64 %12, 2
  %13 = load i32, ptr %i, align 4
  %conv9 = zext i32 %13 to i64
  %add10 = add i64 %shl8, %conv9
  store i64 %add10, ptr %retval, align 8
  br label %return

if.end:                                           ; preds = %land.lhs.true, %for.body
  br label %for.inc

for.inc:                                          ; preds = %if.end
  %14 = load i32, ptr %i, align 4
  %inc = add i32 %14, 1
  store i32 %inc, ptr %i, align 4
  br label %for.cond, !llvm.loop !24

for.end:                                          ; preds = %for.cond
  store i64 -1, ptr %retval, align 8
  br label %return

return:                                           ; preds = %for.end, %if.then
  %15 = load i64, ptr %retval, align 8
  ret i64 %15
}

; Function Attrs: nounwind uwtable
define internal i64 @ckh_isearch(ptr noundef %ckh, ptr noundef %key) #0 {
entry:
  %retval = alloca i64, align 8
  %ckh.addr = alloca ptr, align 8
  %key.addr = alloca ptr, align 8
  %hashes = alloca [2 x i64], align 16
  %bucket = alloca i64, align 8
  %cell = alloca i64, align 8
  store ptr %ckh, ptr %ckh.addr, align 8
  store ptr %key, ptr %key.addr, align 8
  br label %do.body

do.body:                                          ; preds = %entry
  br label %do.end

do.end:                                           ; preds = %do.body
  %0 = load ptr, ptr %ckh.addr, align 8
  %hash = getelementptr inbounds %struct.ckh_t, ptr %0, i32 0, i32 4
  %1 = load ptr, ptr %hash, align 8
  %2 = load ptr, ptr %key.addr, align 8
  %arraydecay = getelementptr inbounds [2 x i64], ptr %hashes, i64 0, i64 0
  call void %1(ptr noundef %2, ptr noundef %arraydecay)
  %arrayidx = getelementptr inbounds [2 x i64], ptr %hashes, i64 0, i64 0
  %3 = load i64, ptr %arrayidx, align 16
  %4 = load ptr, ptr %ckh.addr, align 8
  %lg_curbuckets = getelementptr inbounds %struct.ckh_t, ptr %4, i32 0, i32 3
  %5 = load i32, ptr %lg_curbuckets, align 4
  %sh_prom = zext i32 %5 to i64
  %shl = shl i64 1, %sh_prom
  %sub = sub i64 %shl, 1
  %and = and i64 %3, %sub
  store i64 %and, ptr %bucket, align 8
  %6 = load ptr, ptr %ckh.addr, align 8
  %7 = load i64, ptr %bucket, align 8
  %8 = load ptr, ptr %key.addr, align 8
  %call = call i64 @ckh_bucket_search(ptr noundef %6, i64 noundef %7, ptr noundef %8)
  store i64 %call, ptr %cell, align 8
  %9 = load i64, ptr %cell, align 8
  %cmp = icmp ne i64 %9, -1
  br i1 %cmp, label %if.then, label %if.end

if.then:                                          ; preds = %do.end
  %10 = load i64, ptr %cell, align 8
  store i64 %10, ptr %retval, align 8
  br label %return

if.end:                                           ; preds = %do.end
  %arrayidx1 = getelementptr inbounds [2 x i64], ptr %hashes, i64 0, i64 1
  %11 = load i64, ptr %arrayidx1, align 8
  %12 = load ptr, ptr %ckh.addr, align 8
  %lg_curbuckets2 = getelementptr inbounds %struct.ckh_t, ptr %12, i32 0, i32 3
  %13 = load i32, ptr %lg_curbuckets2, align 4
  %sh_prom3 = zext i32 %13 to i64
  %shl4 = shl i64 1, %sh_prom3
  %sub5 = sub i64 %shl4, 1
  %and6 = and i64 %11, %sub5
  store i64 %and6, ptr %bucket, align 8
  %14 = load ptr, ptr %ckh.addr, align 8
  %15 = load i64, ptr %bucket, align 8
  %16 = load ptr, ptr %key.addr, align 8
  %call7 = call i64 @ckh_bucket_search(ptr noundef %14, i64 noundef %15, ptr noundef %16)
  store i64 %call7, ptr %cell, align 8
  %17 = load i64, ptr %cell, align 8
  store i64 %17, ptr %retval, align 8
  br label %return

return:                                           ; preds = %if.end, %if.then
  %18 = load i64, ptr %retval, align 8
  ret i64 %18
}

; Function Attrs: nounwind uwtable
define hidden zeroext i1 @ckh_search(ptr noundef %ckh, ptr noundef %searchkey, ptr noundef %key, ptr noundef %data) #0 {
entry:
  %retval = alloca i1, align 1
  %ckh.addr = alloca ptr, align 8
  %searchkey.addr = alloca ptr, align 8
  %key.addr = alloca ptr, align 8
  %data.addr = alloca ptr, align 8
  %cell = alloca i64, align 8
  store ptr %ckh, ptr %ckh.addr, align 8
  store ptr %searchkey, ptr %searchkey.addr, align 8
  store ptr %key, ptr %key.addr, align 8
  store ptr %data, ptr %data.addr, align 8
  br label %do.body

do.body:                                          ; preds = %entry
  br label %do.end

do.end:                                           ; preds = %do.body
  %0 = load ptr, ptr %ckh.addr, align 8
  %1 = load ptr, ptr %searchkey.addr, align 8
  %call = call i64 @ckh_isearch(ptr noundef %0, ptr noundef %1)
  store i64 %call, ptr %cell, align 8
  %2 = load i64, ptr %cell, align 8
  %cmp = icmp ne i64 %2, -1
  br i1 %cmp, label %if.then, label %if.end10

if.then:                                          ; preds = %do.end
  %3 = load ptr, ptr %key.addr, align 8
  %cmp1 = icmp ne ptr %3, null
  br i1 %cmp1, label %if.then2, label %if.end

if.then2:                                         ; preds = %if.then
  %4 = load ptr, ptr %ckh.addr, align 8
  %tab = getelementptr inbounds %struct.ckh_t, ptr %4, i32 0, i32 6
  %5 = load ptr, ptr %tab, align 8
  %6 = load i64, ptr %cell, align 8
  %arrayidx = getelementptr inbounds %struct.ckhc_t, ptr %5, i64 %6
  %key3 = getelementptr inbounds %struct.ckhc_t, ptr %arrayidx, i32 0, i32 0
  %7 = load ptr, ptr %key3, align 8
  %8 = load ptr, ptr %key.addr, align 8
  store ptr %7, ptr %8, align 8
  br label %if.end

if.end:                                           ; preds = %if.then2, %if.then
  %9 = load ptr, ptr %data.addr, align 8
  %cmp4 = icmp ne ptr %9, null
  br i1 %cmp4, label %if.then5, label %if.end9

if.then5:                                         ; preds = %if.end
  %10 = load ptr, ptr %ckh.addr, align 8
  %tab6 = getelementptr inbounds %struct.ckh_t, ptr %10, i32 0, i32 6
  %11 = load ptr, ptr %tab6, align 8
  %12 = load i64, ptr %cell, align 8
  %arrayidx7 = getelementptr inbounds %struct.ckhc_t, ptr %11, i64 %12
  %data8 = getelementptr inbounds %struct.ckhc_t, ptr %arrayidx7, i32 0, i32 1
  %13 = load ptr, ptr %data8, align 8
  %14 = load ptr, ptr %data.addr, align 8
  store ptr %13, ptr %14, align 8
  br label %if.end9

if.end9:                                          ; preds = %if.then5, %if.end
  store i1 false, ptr %retval, align 1
  br label %return

if.end10:                                         ; preds = %do.end
  store i1 true, ptr %retval, align 1
  br label %return

return:                                           ; preds = %if.end10, %if.end9
  %15 = load i1, ptr %retval, align 1
  ret i1 %15
}