; Function Attrs: nounwind uwtable
define hidden noundef zeroext i1 @ckh_search(ptr nocapture noundef readonly %ckh, ptr noundef %searchkey, ptr noundef writeonly %key, ptr noundef writeonly %data) local_unnamed_addr #0 {
entry:
  %hashes.i = alloca [2 x i64], align 16
  call void @llvm.lifetime.start.p0(i64 16, ptr nonnull %hashes.i)
  %hash.i = getelementptr inbounds i8, ptr %ckh, i64 24
  %0 = load ptr, ptr %hash.i, align 8
  call void %0(ptr noundef %searchkey, ptr noundef nonnull %hashes.i) #13
  %1 = load i64, ptr %hashes.i, align 16
  %lg_curbuckets.i = getelementptr inbounds i8, ptr %ckh, i64 20
  %2 = load i32, ptr %lg_curbuckets.i, align 4
  %sh_prom.i = zext nneg i32 %2 to i64
  %notmask.i = shl nsw i64 -1, %sh_prom.i
  %sub.i = xor i64 %notmask.i, -1
  %and.i = and i64 %1, %sub.i
  %tab.i.i = getelementptr inbounds i8, ptr %ckh, i64 40
  %shl.i.i = shl i64 %and.i, 2
  %keycomp.i.i = getelementptr inbounds i8, ptr %ckh, i64 32
  br label %for.body.i.i

for.body.i.i:                                     ; preds = %for.inc.i.i, %entry
  %indvars.iv.i.i = phi i64 [ 0, %entry ], [ %indvars.iv.next.i.i, %for.inc.i.i ]
  %3 = load ptr, ptr %tab.i.i, align 8
  %add.i.i = add nuw nsw i64 %indvars.iv.i.i, %shl.i.i
  %arrayidx.i.i = getelementptr inbounds %struct.ckhc_t, ptr %3, i64 %add.i.i
  %4 = load ptr, ptr %arrayidx.i.i, align 8
  %cmp4.not.i.i = icmp eq ptr %4, null
  br i1 %cmp4.not.i.i, label %for.inc.i.i, label %land.lhs.true.i.i

land.lhs.true.i.i:                                ; preds = %for.body.i.i
  %5 = load ptr, ptr %keycomp.i.i, align 8
  %call.i.i = call zeroext i1 %5(ptr noundef %searchkey, ptr noundef nonnull %4) #13
  br i1 %call.i.i, label %ckh_bucket_search.exit.i, label %for.inc.i.i

for.inc.i.i:                                      ; preds = %land.lhs.true.i.i, %for.body.i.i
  %indvars.iv.next.i.i = add nuw nsw i64 %indvars.iv.i.i, 1
  %exitcond.not.i.i = icmp eq i64 %indvars.iv.next.i.i, 4
  br i1 %exitcond.not.i.i, label %if.end.i, label %for.body.i.i, !llvm.loop !12

ckh_bucket_search.exit.i:                         ; preds = %land.lhs.true.i.i
  %cmp.not.i = icmp eq i64 %add.i.i, -1
  br i1 %cmp.not.i, label %if.end.i, label %ckh_isearch.exit.thread10

ckh_isearch.exit.thread10:                        ; preds = %ckh_bucket_search.exit.i
  call void @llvm.lifetime.end.p0(i64 16, ptr nonnull %hashes.i)
  br label %if.then

if.end.i:                                         ; preds = %for.inc.i.i, %ckh_bucket_search.exit.i
  %arrayidx1.i = getelementptr inbounds i8, ptr %hashes.i, i64 8
  %6 = load i64, ptr %arrayidx1.i, align 8
  %7 = load i32, ptr %lg_curbuckets.i, align 4
  %sh_prom3.i = zext nneg i32 %7 to i64
  %notmask10.i = shl nsw i64 -1, %sh_prom3.i
  %sub5.i = xor i64 %notmask10.i, -1
  %and6.i = and i64 %6, %sub5.i
  %shl.i12.i = shl i64 %and6.i, 2
  br label %for.body.i14.i

for.body.i14.i:                                   ; preds = %for.inc.i21.i, %if.end.i
  %indvars.iv.i15.i = phi i64 [ 0, %if.end.i ], [ %indvars.iv.next.i22.i, %for.inc.i21.i ]
  %8 = load ptr, ptr %tab.i.i, align 8
  %add.i16.i = add nuw nsw i64 %indvars.iv.i15.i, %shl.i12.i
  %arrayidx.i17.i = getelementptr inbounds %struct.ckhc_t, ptr %8, i64 %add.i16.i
  %9 = load ptr, ptr %arrayidx.i17.i, align 8
  %cmp4.not.i18.i = icmp eq ptr %9, null
  br i1 %cmp4.not.i18.i, label %for.inc.i21.i, label %land.lhs.true.i19.i

land.lhs.true.i19.i:                              ; preds = %for.body.i14.i
  %10 = load ptr, ptr %keycomp.i.i, align 8
  %call.i20.i = call zeroext i1 %10(ptr noundef %searchkey, ptr noundef nonnull %9) #13
  br i1 %call.i20.i, label %ckh_isearch.exit, label %for.inc.i21.i

for.inc.i21.i:                                    ; preds = %land.lhs.true.i19.i, %for.body.i14.i
  %indvars.iv.next.i22.i = add nuw nsw i64 %indvars.iv.i15.i, 1
  %exitcond.not.i23.i = icmp eq i64 %indvars.iv.next.i22.i, 4
  br i1 %exitcond.not.i23.i, label %ckh_isearch.exit.thread, label %for.body.i14.i, !llvm.loop !12

ckh_isearch.exit.thread:                          ; preds = %for.inc.i21.i
  call void @llvm.lifetime.end.p0(i64 16, ptr nonnull %hashes.i)
  br label %return

ckh_isearch.exit:                                 ; preds = %land.lhs.true.i19.i
  call void @llvm.lifetime.end.p0(i64 16, ptr nonnull %hashes.i)
  %cmp.not = icmp eq i64 %add.i16.i, -1
  br i1 %cmp.not, label %return, label %if.then

if.then:                                          ; preds = %ckh_isearch.exit.thread10, %ckh_isearch.exit
  %retval.0.i13 = phi i64 [ %add.i.i, %ckh_isearch.exit.thread10 ], [ %add.i16.i, %ckh_isearch.exit ]
  %cmp1.not = icmp eq ptr %key, null
  br i1 %cmp1.not, label %if.end, label %if.then2

if.then2:                                         ; preds = %if.then
  %11 = load ptr, ptr %tab.i.i, align 8
  %arrayidx = getelementptr inbounds %struct.ckhc_t, ptr %11, i64 %retval.0.i13
  %12 = load ptr, ptr %arrayidx, align 8
  store ptr %12, ptr %key, align 8
  br label %if.end

if.end:                                           ; preds = %if.then2, %if.then
  %cmp4.not = icmp eq ptr %data, null
  br i1 %cmp4.not, label %return, label %if.then5

if.then5:                                         ; preds = %if.end
  %13 = load ptr, ptr %tab.i.i, align 8
  %data8 = getelementptr inbounds %struct.ckhc_t, ptr %13, i64 %retval.0.i13, i32 1
  %14 = load ptr, ptr %data8, align 8
  store ptr %14, ptr %data, align 8
  br label %return

return:                                           ; preds = %ckh_isearch.exit.thread, %ckh_isearch.exit, %if.end, %if.then5
  %cmp.not9 = phi i1 [ true, %ckh_isearch.exit.thread ], [ true, %ckh_isearch.exit ], [ false, %if.end ], [ false, %if.then5 ]
  ret i1 %cmp.not9
}